target datalayout = "e-m:e-p270:32:32-p271:32:32-p272:64:64-i64:64-i128:128-f80:128-n8:16:32:64-S128"
target triple = "x86_64-unknown-linux-gnu"

%"struct.std::_Vector_base" = type { %"struct.std::_Vector_base<int, std::allocator<int>>::_Vector_impl" }
%"struct.std::_Vector_base<int, std::allocator<int>>::_Vector_impl" = type { %"struct.std::_Vector_base<int, std::allocator<int>>::_Vector_impl_data" }
%"struct.std::_Vector_base<int, std::allocator<int>>::_Vector_impl_data" = type { ptr, ptr, ptr }

@.str.76 = private unnamed_addr constant [74 x i8] c"vector::_M_range_check: __n (which is %zu) >= this->size() (which is %zu)\00", align 1

; Function Attrs: mustprogress nounwind uwtable
define linkonce_odr hidden noundef nonnull align 4 dereferenceable(4) ptr @_ZNSt6vectorIiSaIiEEixEm(ptr noundef nonnull align 8 dereferenceable(24) %this, i64 noundef %__n) #5 comdat align 2 {
entry:
  %this.addr = alloca ptr, align 8
  %__n.addr = alloca i64, align 8
  store ptr %this, ptr %this.addr, align 8
  store i64 %__n, ptr %__n.addr, align 8
  %this1 = load ptr, ptr %this.addr, align 8
  %_M_impl = getelementptr inbounds %"struct.std::_Vector_base", ptr %this1, i32 0, i32 0
  %_M_start = getelementptr inbounds %"struct.std::_Vector_base<int, std::allocator<int>>::_Vector_impl_data", ptr %_M_impl, i32 0, i32 0
  %0 = load ptr, ptr %_M_start, align 8
  %1 = load i64, ptr %__n.addr, align 8
  %add.ptr = getelementptr inbounds i32, ptr %0, i64 %1
  ret ptr %add.ptr
}

; Function Attrs: mustprogress uwtable
define linkonce_odr hidden void @_ZNKSt6vectorIiSaIiEE14_M_range_checkEm(ptr noundef nonnull align 8 dereferenceable(24) %this, i64 noundef %__n) #4 comdat align 2 {
entry:
  %this.addr = alloca ptr, align 8
  %__n.addr = alloca i64, align 8
  store ptr %this, ptr %this.addr, align 8
  store i64 %__n, ptr %__n.addr, align 8
  %this1 = load ptr, ptr %this.addr, align 8
  %0 = load i64, ptr %__n.addr, align 8
  %call = call noundef i64 @_ZNKSt6vectorIiSaIiEE4sizeEv(ptr noundef nonnull align 8 dereferenceable(24) %this1) #3
  %cmp = icmp uge i64 %0, %call
  br i1 %cmp, label %if.then, label %if.end

if.then:                                          ; preds = %entry
  %1 = load i64, ptr %__n.addr, align 8
  %call2 = call noundef i64 @_ZNKSt6vectorIiSaIiEE4sizeEv(ptr noundef nonnull align 8 dereferenceable(24) %this1) #3
  call void (ptr, ...) @_ZSt24__throw_out_of_range_fmtPKcz(ptr noundef @.str.76, i64 noundef %1, i64 noundef %call2) #27
  unreachable

if.end:                                           ; preds = %entry
  ret void
}

; Function Attrs: mustprogress uwtable
define linkonce_odr hidden noundef nonnull align 4 dereferenceable(4) ptr @_ZNSt6vectorIiSaIiEE2atEm(ptr noundef nonnull align 8 dereferenceable(24) %this, i64 noundef %__n) #4 comdat align 2 {
entry:
  %this.addr = alloca ptr, align 8
  %__n.addr = alloca i64, align 8
  store ptr %this, ptr %this.addr, align 8
  store i64 %__n, ptr %__n.addr, align 8
  %this1 = load ptr, ptr %this.addr, align 8
  %0 = load i64, ptr %__n.addr, align 8
  call void @_ZNKSt6vectorIiSaIiEE14_M_range_checkEm(ptr noundef nonnull align 8 dereferenceable(24) %this1, i64 noundef %0)
  %1 = load i64, ptr %__n.addr, align 8
  %call = call noundef nonnull align 4 dereferenceable(4) ptr @_ZNSt6vectorIiSaIiEEixEm(ptr noundef nonnull align 8 dereferenceable(24) %this1, i64 noundef %1) #3
  ret ptr %call
}

; Function Attrs: mustprogress nounwind uwtable
define linkonce_odr hidden noundef i64 @_ZNKSt6vectorIiSaIiEE4sizeEv(ptr noundef nonnull align 8 dereferenceable(24) %this) #5 comdat align 2 {
entry:
  %this.addr = alloca ptr, align 8
  store ptr %this, ptr %this.addr, align 8
  %this1 = load ptr, ptr %this.addr, align 8
  %_M_impl = getelementptr inbounds %"struct.std::_Vector_base", ptr %this1, i32 0, i32 0
  %_M_finish = getelementptr inbounds %"struct.std::_Vector_base<int, std::allocator<int>>::_Vector_impl_data", ptr %_M_impl, i32 0, i32 1
  %0 = load ptr, ptr %_M_finish, align 8
  %_M_impl2 = getelementptr inbounds %"struct.std::_Vector_base", ptr %this1, i32 0, i32 0
  %_M_start = getelementptr inbounds %"struct.std::_Vector_base<int, std::allocator<int>>::_Vector_impl_data", ptr %_M_impl2, i32 0, i32 0
  %1 = load ptr, ptr %_M_start, align 8
  %sub.ptr.lhs.cast = ptrtoint ptr %0 to i64
  %sub.ptr.rhs.cast = ptrtoint ptr %1 to i64
  %sub.ptr.sub = sub i64 %sub.ptr.lhs.cast, %sub.ptr.rhs.cast
  %sub.ptr.div = sdiv exact i64 %sub.ptr.sub, 4
  ret i64 %sub.ptr.div
}

; Function Attrs: mustprogress uwtable
define hidden void @_ZN6google8protobuf4util37MatchIndicesPostProcessorForSmartListEPSt6vectorIiSaIiEES5_(ptr noundef %match_list1, ptr noundef %match_list2) #4 {
entry:
  %match_list1.addr = alloca ptr, align 8
  %match_list2.addr = alloca ptr, align 8
  %last_matched_index = alloca i32, align 4
  %i = alloca i64, align 8
  store ptr %match_list1, ptr %match_list1.addr, align 8
  store ptr %match_list2, ptr %match_list2.addr, align 8
  store i32 -1, ptr %last_matched_index, align 4
  store i64 0, ptr %i, align 8
  br label %for.cond

for.cond:                                         ; preds = %for.inc, %entry
  %0 = load i64, ptr %i, align 8
  %1 = load ptr, ptr %match_list1.addr, align 8
  %call = call noundef i64 @_ZNKSt6vectorIiSaIiEE4sizeEv(ptr noundef nonnull align 8 dereferenceable(24) %1) #3
  %cmp = icmp ult i64 %0, %call
  br i1 %cmp, label %for.body, label %for.end

for.body:                                         ; preds = %for.cond
  %2 = load ptr, ptr %match_list1.addr, align 8
  %3 = load i64, ptr %i, align 8
  %call1 = call noundef nonnull align 4 dereferenceable(4) ptr @_ZNSt6vectorIiSaIiEE2atEm(ptr noundef nonnull align 8 dereferenceable(24) %2, i64 noundef %3)
  %4 = load i32, ptr %call1, align 4
  %cmp2 = icmp slt i32 %4, 0
  br i1 %cmp2, label %if.then, label %if.end

if.then:                                          ; preds = %for.body
  br label %for.inc

if.end:                                           ; preds = %for.body
  %5 = load i32, ptr %last_matched_index, align 4
  %cmp3 = icmp slt i32 %5, 0
  br i1 %cmp3, label %if.then6, label %lor.lhs.false

lor.lhs.false:                                    ; preds = %if.end
  %6 = load ptr, ptr %match_list1.addr, align 8
  %7 = load i64, ptr %i, align 8
  %call4 = call noundef nonnull align 4 dereferenceable(4) ptr @_ZNSt6vectorIiSaIiEE2atEm(ptr noundef nonnull align 8 dereferenceable(24) %6, i64 noundef %7)
  %8 = load i32, ptr %call4, align 4
  %9 = load i32, ptr %last_matched_index, align 4
  %cmp5 = icmp sgt i32 %8, %9
  br i1 %cmp5, label %if.then6, label %if.else

if.then6:                                         ; preds = %lor.lhs.false, %if.end
  %10 = load ptr, ptr %match_list1.addr, align 8
  %11 = load i64, ptr %i, align 8
  %call7 = call noundef nonnull align 4 dereferenceable(4) ptr @_ZNSt6vectorIiSaIiEE2atEm(ptr noundef nonnull align 8 dereferenceable(24) %10, i64 noundef %11)
  %12 = load i32, ptr %call7, align 4
  store i32 %12, ptr %last_matched_index, align 4
  br label %if.end11

if.else:                                          ; preds = %lor.lhs.false
  %13 = load ptr, ptr %match_list2.addr, align 8
  %14 = load ptr, ptr %match_list1.addr, align 8
  %15 = load i64, ptr %i, align 8
  %call8 = call noundef nonnull align 4 dereferenceable(4) ptr @_ZNSt6vectorIiSaIiEE2atEm(ptr noundef nonnull align 8 dereferenceable(24) %14, i64 noundef %15)
  %16 = load i32, ptr %call8, align 4
  %conv = sext i32 %16 to i64
  %call9 = call noundef nonnull align 4 dereferenceable(4) ptr @_ZNSt6vectorIiSaIiEE2atEm(ptr noundef nonnull align 8 dereferenceable(24) %13, i64 noundef %conv)
  store i32 -1, ptr %call9, align 4
  %17 = load ptr, ptr %match_list1.addr, align 8
  %18 = load i64, ptr %i, align 8
  %call10 = call noundef nonnull align 4 dereferenceable(4) ptr @_ZNSt6vectorIiSaIiEE2atEm(ptr noundef nonnull align 8 dereferenceable(24) %17, i64 noundef %18)
  store i32 -1, ptr %call10, align 4
  br label %if.end11

if.end11:                                         ; preds = %if.else, %if.then6
  br label %for.inc

for.inc:                                          ; preds = %if.end11, %if.then
  %19 = load i64, ptr %i, align 8
  %inc = add i64 %19, 1
  store i64 %inc, ptr %i, align 8
  br label %for.cond, !llvm.loop !4

for.end:                                          ; preds = %for.cond
  ret void
}