; Function Attrs: mustprogress uwtable
define hidden void @_ZN6google8protobuf4util37MatchIndicesPostProcessorForSmartListEPSt6vectorIiSaIiEES5_(ptr nocapture noundef readonly %match_list1, ptr nocapture noundef readonly %match_list2) #3 {
entry:
  %_M_finish.i = getelementptr inbounds i8, ptr %match_list1, i64 8
  %0 = load ptr, ptr %_M_finish.i, align 8
  %1 = load ptr, ptr %match_list1, align 8
  %cmp66.not = icmp eq ptr %0, %1
  br i1 %cmp66.not, label %for.end, label %_ZNSt6vectorIiSaIiEE2atEm.exit.lr.ph

_ZNSt6vectorIiSaIiEE2atEm.exit.lr.ph:             ; preds = %entry
  %_M_finish.i.i.i40 = getelementptr inbounds i8, ptr %match_list2, i64 8
  br label %_ZNSt6vectorIiSaIiEE2atEm.exit

_ZNSt6vectorIiSaIiEE2atEm.exit:                   ; preds = %_ZNSt6vectorIiSaIiEE2atEm.exit.lr.ph, %for.inc
  %2 = phi ptr [ %1, %_ZNSt6vectorIiSaIiEE2atEm.exit.lr.ph ], [ %9, %for.inc ]
  %3 = phi ptr [ %0, %_ZNSt6vectorIiSaIiEE2atEm.exit.lr.ph ], [ %10, %for.inc ]
  %i.068 = phi i64 [ 0, %_ZNSt6vectorIiSaIiEE2atEm.exit.lr.ph ], [ %inc, %for.inc ]
  %last_matched_index.067 = phi i32 [ -1, %_ZNSt6vectorIiSaIiEE2atEm.exit.lr.ph ], [ %last_matched_index.1, %for.inc ]
  %add.ptr.i.i = getelementptr inbounds i32, ptr %2, i64 %i.068
  %4 = load i32, ptr %add.ptr.i.i, align 4
  %cmp2 = icmp slt i32 %4, 0
  br i1 %cmp2, label %for.inc, label %if.end

if.end:                                           ; preds = %_ZNSt6vectorIiSaIiEE2atEm.exit
  %cmp3 = icmp slt i32 %last_matched_index.067, 0
  %cmp5 = icmp ugt i32 %4, %last_matched_index.067
  %or.cond = or i1 %cmp3, %cmp5
  br i1 %or.cond, label %for.inc, label %_ZNSt6vectorIiSaIiEE2atEm.exit39

_ZNSt6vectorIiSaIiEE2atEm.exit39:                 ; preds = %if.end
  %conv = zext nneg i32 %4 to i64
  %5 = load ptr, ptr %_M_finish.i.i.i40, align 8
  %6 = load ptr, ptr %match_list2, align 8
  %sub.ptr.lhs.cast.i.i.i41 = ptrtoint ptr %5 to i64
  %sub.ptr.rhs.cast.i.i.i42 = ptrtoint ptr %6 to i64
  %sub.ptr.sub.i.i.i43 = sub i64 %sub.ptr.lhs.cast.i.i.i41, %sub.ptr.rhs.cast.i.i.i42
  %sub.ptr.div.i.i.i44 = ashr exact i64 %sub.ptr.sub.i.i.i43, 2
  %cmp.not.i.i45 = icmp ugt i64 %sub.ptr.div.i.i.i44, %conv
  br i1 %cmp.not.i.i45, label %_ZNSt6vectorIiSaIiEE2atEm.exit48, label %if.then.i.i46

if.then.i.i46:                                    ; preds = %_ZNSt6vectorIiSaIiEE2atEm.exit39
  tail call void (ptr, ...) @_ZSt24__throw_out_of_range_fmtPKcz(ptr noundef nonnull @.str.76, i64 noundef %conv, i64 noundef %sub.ptr.div.i.i.i44) #31
  unreachable

_ZNSt6vectorIiSaIiEE2atEm.exit48:                 ; preds = %_ZNSt6vectorIiSaIiEE2atEm.exit39
  %add.ptr.i.i47 = getelementptr inbounds i32, ptr %6, i64 %conv
  store i32 -1, ptr %add.ptr.i.i47, align 4
  %7 = load ptr, ptr %_M_finish.i, align 8
  %8 = load ptr, ptr %match_list1, align 8
  %sub.ptr.lhs.cast.i.i.i50 = ptrtoint ptr %7 to i64
  %sub.ptr.rhs.cast.i.i.i51 = ptrtoint ptr %8 to i64
  %sub.ptr.sub.i.i.i52 = sub i64 %sub.ptr.lhs.cast.i.i.i50, %sub.ptr.rhs.cast.i.i.i51
  %sub.ptr.div.i.i.i53 = ashr exact i64 %sub.ptr.sub.i.i.i52, 2
  %cmp.not.i.i54 = icmp ugt i64 %sub.ptr.div.i.i.i53, %i.068
  br i1 %cmp.not.i.i54, label %_ZNSt6vectorIiSaIiEE2atEm.exit57, label %if.then.i.i55

if.then.i.i55:                                    ; preds = %_ZNSt6vectorIiSaIiEE2atEm.exit48
  tail call void (ptr, ...) @_ZSt24__throw_out_of_range_fmtPKcz(ptr noundef nonnull @.str.76, i64 noundef %i.068, i64 noundef %sub.ptr.div.i.i.i53) #31
  unreachable

_ZNSt6vectorIiSaIiEE2atEm.exit57:                 ; preds = %_ZNSt6vectorIiSaIiEE2atEm.exit48
  %add.ptr.i.i56 = getelementptr inbounds i32, ptr %8, i64 %i.068
  store i32 -1, ptr %add.ptr.i.i56, align 4
  %.pre = load ptr, ptr %_M_finish.i, align 8
  %.pre73 = load ptr, ptr %match_list1, align 8
  br label %for.inc

for.inc:                                          ; preds = %if.end, %_ZNSt6vectorIiSaIiEE2atEm.exit57, %_ZNSt6vectorIiSaIiEE2atEm.exit
  %9 = phi ptr [ %2, %_ZNSt6vectorIiSaIiEE2atEm.exit ], [ %.pre73, %_ZNSt6vectorIiSaIiEE2atEm.exit57 ], [ %2, %if.end ]
  %10 = phi ptr [ %3, %_ZNSt6vectorIiSaIiEE2atEm.exit ], [ %.pre, %_ZNSt6vectorIiSaIiEE2atEm.exit57 ], [ %3, %if.end ]
  %last_matched_index.1 = phi i32 [ %last_matched_index.067, %_ZNSt6vectorIiSaIiEE2atEm.exit ], [ %last_matched_index.067, %_ZNSt6vectorIiSaIiEE2atEm.exit57 ], [ %4, %if.end ]
  %inc = add nuw i64 %i.068, 1
  %sub.ptr.lhs.cast.i = ptrtoint ptr %10 to i64
  %sub.ptr.rhs.cast.i = ptrtoint ptr %9 to i64
  %sub.ptr.sub.i = sub i64 %sub.ptr.lhs.cast.i, %sub.ptr.rhs.cast.i
  %sub.ptr.div.i = ashr exact i64 %sub.ptr.sub.i, 2
  %cmp = icmp ult i64 %inc, %sub.ptr.div.i
  br i1 %cmp, label %_ZNSt6vectorIiSaIiEE2atEm.exit, label %for.end, !llvm.loop !4

for.end:                                          ; preds = %for.inc, %entry
  ret void
}